; ModuleID = 'source-C-CXX/27/868.c'
source_filename = "source-C-CXX/27/868.c"
target datalayout = "e-m:e-p270:32:32-p271:32:32-p272:64:64-i64:64-f80:128-n8:16:32:64-S128"
target triple = "x86_64-pc-linux-gnu"

@.str = private unnamed_addr constant [3 x i8] c"%d\00", align 1
@.str.1 = private unnamed_addr constant [4 x i8] c",%d\00", align 1

; Function Attrs: nounwind sspstrong uwtable
define dso_local i32 @main() local_unnamed_addr #0 {
  %1 = alloca [10000 x i8], align 16
  %2 = getelementptr inbounds [10000 x i8], [10000 x i8]* %1, i64 0, i64 0
  call void @llvm.lifetime.start.p0i8(i64 10000, i8* nonnull %2) #5
  %3 = call i32 (i8*, ...) bitcast (i32 (...)* @gets to i32 (i8*, ...)*)(i8* nonnull %2) #5
  br label %4

4:                                                ; preds = %8, %0
  %5 = phi i64 [ %9, %8 ], [ 0, %0 ]
  %6 = getelementptr inbounds [10000 x i8], [10000 x i8]* %1, i64 0, i64 %5
  %7 = load i8, i8* %6, align 1, !tbaa !5
  switch i8 %7, label %8 [
    i8 32, label %10
    i8 0, label %10
  ]

8:                                                ; preds = %4
  %9 = add nuw i64 %5, 1
  br label %4, !llvm.loop !8

10:                                               ; preds = %4, %4
  %11 = trunc i64 %5 to i32
  %12 = call i32 (i8*, ...) @printf(i8* nonnull dereferenceable(1) getelementptr inbounds ([3 x i8], [3 x i8]* @.str, i64 0, i64 0), i32 %11)
  %13 = and i64 %5, 4294967295
  br label %14

14:                                               ; preds = %21, %10
  %15 = phi i64 [ %22, %21 ], [ %13, %10 ]
  %16 = phi i32 [ %27, %21 ], [ 0, %10 ]
  br label %17

17:                                               ; preds = %33, %14
  %18 = phi i64 [ %15, %14 ], [ %29, %33 ]
  %19 = getelementptr inbounds [10000 x i8], [10000 x i8]* %1, i64 0, i64 %18
  %20 = load i8, i8* %19, align 1, !tbaa !5
  switch i8 %20, label %28 [
    i8 0, label %38
    i8 32, label %21
  ]

21:                                               ; preds = %17
  %22 = add nuw i64 %18, 1
  %23 = getelementptr inbounds [10000 x i8], [10000 x i8]* %1, i64 0, i64 %22
  %24 = load i8, i8* %23, align 1, !tbaa !5
  %25 = icmp eq i8 %24, 32
  %26 = trunc i64 %18 to i32
  %27 = select i1 %25, i32 %16, i32 %26
  br label %14, !llvm.loop !10

28:                                               ; preds = %17
  %29 = add nuw i64 %18, 1
  %30 = getelementptr inbounds [10000 x i8], [10000 x i8]* %1, i64 0, i64 %29
  %31 = load i8, i8* %30, align 1, !tbaa !5
  %32 = icmp eq i8 %31, 32
  br i1 %32, label %34, label %33

33:                                               ; preds = %28, %34
  br label %17, !llvm.loop !10

34:                                               ; preds = %28
  %35 = trunc i64 %18 to i32
  %36 = sub nsw i32 %35, %16
  %37 = call i32 (i8*, ...) @printf(i8* nonnull dereferenceable(1) getelementptr inbounds ([4 x i8], [4 x i8]* @.str.1, i64 0, i64 0), i32 %36)
  br label %33

38:                                               ; preds = %17
  %39 = call i64 @strlen(i8* noundef nonnull %2) #6
  %40 = icmp eq i64 %39, %13
  br i1 %40, label %46, label %41

41:                                               ; preds = %38
  %42 = xor i32 %16, -1
  %43 = sext i32 %42 to i64
  %44 = add i64 %39, %43
  %45 = call i32 (i8*, ...) @printf(i8* nonnull dereferenceable(1) getelementptr inbounds ([4 x i8], [4 x i8]* @.str.1, i64 0, i64 0), i64 %44)
  br label %46

46:                                               ; preds = %41, %38
  call void @llvm.lifetime.end.p0i8(i64 10000, i8* nonnull %2) #5
  ret i32 0
}

; Function Attrs: argmemonly mustprogress nofree nosync nounwind willreturn
declare void @llvm.lifetime.start.p0i8(i64 immarg, i8* nocapture) #1

declare i32 @gets(...) local_unnamed_addr #2

; Function Attrs: nofree nounwind
declare noundef i32 @printf(i8* nocapture noundef readonly, ...) local_unnamed_addr #3

; Function Attrs: argmemonly mustprogress nofree nounwind readonly willreturn
declare i64 @strlen(i8* nocapture) local_unnamed_addr #4

; Function Attrs: argmemonly mustprogress nofree nosync nounwind willreturn
declare void @llvm.lifetime.end.p0i8(i64 immarg, i8* nocapture) #1


!llvm.module.flags = !{!0, !1, !2, !3}
!llvm.ident = !{!4}

!0 = !{i32 1, !"wchar_size", i32 4}
!1 = !{i32 7, !"PIC Level", i32 2}
!2 = !{i32 7, !"PIE Level", i32 2}
!3 = !{i32 7, !"uwtable", i32 1}
!4 = !{!"clang version 13.0.0"}
!5 = !{!6, !6, i64 0}
!6 = !{!"omnipotent char", !7, i64 0}
!7 = !{!"Simple C/C++ TBAA"}
!8 = distinct !{!8, !9}
!9 = !{!"llvm.loop.mustprogress"}
!10 = distinct !{!10, !9}
